; Function Attrs: mustprogress uwtable
define void @_ZN10ImDrawList19_OnChangedTextureIDEv(ptr noundef nonnull align 8 captures(none) dereferenceable(216) %0) local_unnamed_addr #12 align 2 {
  %.sroa.0.i = alloca %struct.ImVec4, align 8
  %2 = getelementptr inbounds nuw i8, ptr %0, i64 8
  %3 = load ptr, ptr %2, align 8, !tbaa !74
  %4 = load i32, ptr %0, align 8, !tbaa !73
  %5 = sext i32 %4 to i64
  %6 = getelementptr %struct.ImDrawCmd, ptr %3, i64 %5
  %7 = getelementptr i8, ptr %6, i64 -32
  %8 = load i32, ptr %7, align 8, !tbaa !75
  %.not = icmp eq i32 %8, 0
  br i1 %.not, label %44, label %9

9:                                                ; preds = %1
  %10 = getelementptr i8, ptr %6, i64 -48
  %11 = load i64, ptr %10, align 8, !tbaa !101
  %12 = getelementptr inbounds nuw i8, ptr %0, i64 112
  %13 = load i64, ptr %12, align 8, !tbaa !90
  %.not11 = icmp eq i64 %11, %13
  br i1 %.not11, label %.thread, label %14

14:                                               ; preds = %9
  call void @llvm.lifetime.start.p0(i64 16, ptr nonnull %.sroa.0.i)
  %15 = getelementptr inbounds nuw i8, ptr %0, i64 96
  call void @llvm.memcpy.p0.p0.i64(ptr noundef nonnull align 8 dereferenceable(16) %.sroa.0.i, ptr noundef nonnull align 8 dereferenceable(16) %15, i64 16, i1 false), !tbaa.struct !7
  %16 = getelementptr inbounds nuw i8, ptr %0, i64 120
  %17 = load i32, ptr %16, align 8, !tbaa !91
  %18 = getelementptr inbounds nuw i8, ptr %0, i64 16
  %19 = load i32, ptr %18, align 8, !tbaa !79
  %20 = getelementptr inbounds nuw i8, ptr %0, i64 4
  %21 = load i32, ptr %20, align 4, !tbaa !52
  %22 = icmp eq i32 %4, %21
  br i1 %22, label %23, label %_ZN10ImDrawList10AddDrawCmdEv.exit

23:                                               ; preds = %14
  %24 = add nsw i32 %4, 1
  %.not.i.i.i = icmp eq i32 %4, 0
  br i1 %.not.i.i.i, label %_ZNK8ImVectorI9ImDrawCmdE14_grow_capacityEi.exit.i.i, label %25

25:                                               ; preds = %23
  %26 = sdiv i32 %4, 2
  %27 = add nsw i32 %26, %4
  br label %_ZNK8ImVectorI9ImDrawCmdE14_grow_capacityEi.exit.i.i

_ZNK8ImVectorI9ImDrawCmdE14_grow_capacityEi.exit.i.i: ; preds = %25, %23
  %28 = phi i32 [ %27, %25 ], [ 8, %23 ]
  %29 = tail call noundef i32 @llvm.smax.i32(i32 %28, i32 %24)
  %30 = sext i32 %29 to i64
  %31 = shl nsw i64 %30, 6
  %32 = tail call noundef ptr @_ZN5ImGui8MemAllocEm(i64 noundef %31)
  %33 = load ptr, ptr %2, align 8, !tbaa !51
  %.not6.i.i.i = icmp eq ptr %33, null
  br i1 %.not6.i.i.i, label %39, label %34

34:                                               ; preds = %_ZNK8ImVectorI9ImDrawCmdE14_grow_capacityEi.exit.i.i
  %35 = load i32, ptr %0, align 8, !tbaa !53
  %36 = sext i32 %35 to i64
  %37 = shl nsw i64 %36, 6
  tail call void @llvm.memcpy.p0.p0.i64(ptr align 8 %32, ptr nonnull align 8 %33, i64 %37, i1 false)
  %38 = load ptr, ptr %2, align 8, !tbaa !51
  tail call void @_ZN5ImGui7MemFreeEPv(ptr noundef %38)
  br label %39

39:                                               ; preds = %34, %_ZNK8ImVectorI9ImDrawCmdE14_grow_capacityEi.exit.i.i
  store ptr %32, ptr %2, align 8, !tbaa !51
  store i32 %29, ptr %20, align 4, !tbaa !52
  %.pre3.i.i = load i32, ptr %0, align 8, !tbaa !53
  %.pre = sext i32 %.pre3.i.i to i64
  br label %_ZN10ImDrawList10AddDrawCmdEv.exit

_ZN10ImDrawList10AddDrawCmdEv.exit:               ; preds = %14, %39
  %.pre-phi = phi i64 [ %5, %14 ], [ %.pre, %39 ]
  %40 = phi ptr [ %3, %14 ], [ %32, %39 ]
  %41 = getelementptr inbounds %struct.ImDrawCmd, ptr %40, i64 %.pre-phi
  call void @llvm.memcpy.p0.p0.i64(ptr noundef nonnull align 8 dereferenceable(16) %41, ptr noundef nonnull align 8 dereferenceable(16) %.sroa.0.i, i64 16, i1 false)
  %.sroa.5.0..sroa_idx.i = getelementptr inbounds nuw i8, ptr %41, i64 16
  store i64 %13, ptr %.sroa.5.0..sroa_idx.i, align 8
  %.sroa.6.0..sroa_idx.i = getelementptr inbounds nuw i8, ptr %41, i64 24
  store i32 %17, ptr %.sroa.6.0..sroa_idx.i, align 8
  %.sroa.7.0..sroa_idx.i = getelementptr inbounds nuw i8, ptr %41, i64 28
  store i32 %19, ptr %.sroa.7.0..sroa_idx.i, align 4
  %.sroa.8.0..sroa_idx.i = getelementptr inbounds nuw i8, ptr %41, i64 32
  tail call void @llvm.memset.p0.i64(ptr noundef nonnull align 8 dereferenceable(32) %.sroa.8.0..sroa_idx.i, i8 0, i64 32, i1 false)
  %42 = load i32, ptr %0, align 8, !tbaa !53
  %43 = add nsw i32 %42, 1
  store i32 %43, ptr %0, align 8, !tbaa !53
  call void @llvm.lifetime.end.p0(i64 16, ptr nonnull %.sroa.0.i)
  br label %68

44:                                               ; preds = %1
  %45 = icmp sgt i32 %4, 1
  br i1 %45, label %46, label %.thread

46:                                               ; preds = %44
  %47 = getelementptr i8, ptr %6, i64 -128
  %48 = getelementptr inbounds nuw i8, ptr %0, i64 96
  %bcmp = tail call i32 @bcmp(ptr noundef nonnull dereferenceable(28) %48, ptr noundef nonnull dereferenceable(28) %47, i64 28)
  %49 = icmp eq i32 %bcmp, 0
  br i1 %49, label %50, label %.thread

50:                                               ; preds = %46
  %51 = getelementptr i8, ptr %6, i64 -100
  %52 = load i32, ptr %51, align 4, !tbaa !78
  %53 = getelementptr i8, ptr %6, i64 -96
  %54 = load i32, ptr %53, align 8, !tbaa !75
  %55 = add i32 %54, %52
  %56 = getelementptr i8, ptr %6, i64 -36
  %57 = load i32, ptr %56, align 4, !tbaa !78
  %58 = icmp eq i32 %55, %57
  br i1 %58, label %59, label %.thread

59:                                               ; preds = %50
  %60 = getelementptr i8, ptr %6, i64 -88
  %61 = load ptr, ptr %60, align 8, !tbaa !77
  %62 = icmp eq ptr %61, null
  br i1 %62, label %63, label %.thread

63:                                               ; preds = %59
  %64 = add nsw i32 %4, -1
  store i32 %64, ptr %0, align 8, !tbaa !53
  br label %68

.thread:                                          ; preds = %9, %59, %50, %46, %44
  %65 = getelementptr inbounds nuw i8, ptr %0, i64 112
  %66 = load i64, ptr %65, align 8, !tbaa !90
  %67 = getelementptr i8, ptr %6, i64 -48
  store i64 %66, ptr %67, align 8, !tbaa !101
  br label %68

68:                                               ; preds = %63, %.thread, %_ZN10ImDrawList10AddDrawCmdEv.exit
  ret void
}